; ModuleID = '7/1007.c'
source_filename = "7/1007.c"
target datalayout = "e-m:e-p270:32:32-p271:32:32-p272:64:64-i64:64-f80:128-n8:16:32:64-S128"
target triple = "x86_64-pc-linux-gnu"

@i = dso_local global i32 0, align 4
@j = dso_local global i32 0, align 4
@m = dso_local global i32 0, align 4
@.str = private unnamed_addr constant [9 x i8] c"%s\0A%s\0A%s\00", align 1
@str = common dso_local global [256 x i8] zeroinitializer, align 16
@sub = common dso_local global [256 x i8] zeroinitializer, align 16
@repl = common dso_local global [256 x i8] zeroinitializer, align 16
@k = common dso_local global i32 0, align 4
@.str.1 = private unnamed_addr constant [4 x i8] c"%s\0A\00", align 1

; Function Attrs: noinline nounwind uwtable
define dso_local i32 @main() #0 {
  %1 = alloca i32, align 4
  store i32 0, i32* %1, align 4
  %2 = call i32 (i8*, ...) @__isoc99_scanf(i8* getelementptr inbounds ([9 x i8], [9 x i8]* @.str, i64 0, i64 0), i8* getelementptr inbounds ([256 x i8], [256 x i8]* @str, i64 0, i64 0), i8* getelementptr inbounds ([256 x i8], [256 x i8]* @sub, i64 0, i64 0), i8* getelementptr inbounds ([256 x i8], [256 x i8]* @repl, i64 0, i64 0))
  store i32 0, i32* @i, align 4
  br label %3

3:                                                ; preds = %59, %0
  %4 = load i32, i32* @i, align 4
  %5 = sext i32 %4 to i64
  %6 = getelementptr inbounds [256 x i8], [256 x i8]* @str, i64 0, i64 %5
  %7 = load i8, i8* %6, align 1
  %8 = sext i8 %7 to i32
  %9 = icmp ne i32 %8, 0
  br i1 %9, label %10, label %62

10:                                               ; preds = %3
  %11 = load i8, i8* getelementptr inbounds ([256 x i8], [256 x i8]* @sub, i64 0, i64 0), align 16
  %12 = sext i8 %11 to i32
  %13 = load i32, i32* @i, align 4
  %14 = sext i32 %13 to i64
  %15 = getelementptr inbounds [256 x i8], [256 x i8]* @str, i64 0, i64 %14
  %16 = load i8, i8* %15, align 1
  %17 = sext i8 %16 to i32
  %18 = icmp eq i32 %12, %17
  br i1 %18, label %19, label %58

19:                                               ; preds = %10
  %20 = load i32, i32* @i, align 4
  %21 = add nsw i32 %20, 1
  store i32 %21, i32* @k, align 4
  store i32 1, i32* @j, align 4
  store i32 1, i32* @j, align 4
  br label %22

22:                                               ; preds = %46, %19
  %23 = load i32, i32* @j, align 4
  %24 = sext i32 %23 to i64
  %25 = getelementptr inbounds [256 x i8], [256 x i8]* @sub, i64 0, i64 %24
  %26 = load i8, i8* %25, align 1
  %27 = sext i8 %26 to i32
  %28 = icmp ne i32 %27, 0
  br i1 %28, label %29, label %49

29:                                               ; preds = %22
  %30 = load i32, i32* @j, align 4
  %31 = sext i32 %30 to i64
  %32 = getelementptr inbounds [256 x i8], [256 x i8]* @sub, i64 0, i64 %31
  %33 = load i8, i8* %32, align 1
  %34 = sext i8 %33 to i32
  %35 = load i32, i32* @k, align 4
  %36 = sext i32 %35 to i64
  %37 = getelementptr inbounds [256 x i8], [256 x i8]* @str, i64 0, i64 %36
  %38 = load i8, i8* %37, align 1
  %39 = sext i8 %38 to i32
  %40 = icmp eq i32 %34, %39
  br i1 %40, label %41, label %44

41:                                               ; preds = %29
  %42 = load i32, i32* @k, align 4
  %43 = add nsw i32 %42, 1
  store i32 %43, i32* @k, align 4
  br label %45

44:                                               ; preds = %29
  br label %49

45:                                               ; preds = %41
  br label %46

46:                                               ; preds = %45
  %47 = load i32, i32* @j, align 4
  %48 = add nsw i32 %47, 1
  store i32 %48, i32* @j, align 4
  br label %22

49:                                               ; preds = %44, %22
  %50 = load i32, i32* @j, align 4
  %51 = sext i32 %50 to i64
  %52 = getelementptr inbounds [256 x i8], [256 x i8]* @sub, i64 0, i64 %51
  %53 = load i8, i8* %52, align 1
  %54 = sext i8 %53 to i32
  %55 = icmp eq i32 %54, 0
  br i1 %55, label %56, label %57

56:                                               ; preds = %49
  br label %62

57:                                               ; preds = %49
  br label %58

58:                                               ; preds = %57, %10
  br label %59

59:                                               ; preds = %58
  %60 = load i32, i32* @i, align 4
  %61 = add nsw i32 %60, 1
  store i32 %61, i32* @i, align 4
  br label %3

62:                                               ; preds = %56, %3
  store i32 0, i32* @m, align 4
  br label %63

63:                                               ; preds = %88, %62
  %64 = load i32, i32* @m, align 4
  %65 = sext i32 %64 to i64
  %66 = getelementptr inbounds [256 x i8], [256 x i8]* @repl, i64 0, i64 %65
  %67 = load i8, i8* %66, align 1
  %68 = sext i8 %67 to i32
  %69 = icmp ne i32 %68, 0
  br i1 %69, label %70, label %91

70:                                               ; preds = %63
  %71 = load i32, i32* @i, align 4
  %72 = sext i32 %71 to i64
  %73 = getelementptr inbounds [256 x i8], [256 x i8]* @str, i64 0, i64 %72
  %74 = load i8, i8* %73, align 1
  %75 = sext i8 %74 to i32
  %76 = icmp eq i32 %75, 0
  br i1 %76, label %77, label %78

77:                                               ; preds = %70
  br label %91

78:                                               ; preds = %70
  %79 = load i32, i32* @m, align 4
  %80 = sext i32 %79 to i64
  %81 = getelementptr inbounds [256 x i8], [256 x i8]* @repl, i64 0, i64 %80
  %82 = load i8, i8* %81, align 1
  %83 = load i32, i32* @i, align 4
  %84 = sext i32 %83 to i64
  %85 = getelementptr inbounds [256 x i8], [256 x i8]* @str, i64 0, i64 %84
  store i8 %82, i8* %85, align 1
  %86 = load i32, i32* @i, align 4
  %87 = add nsw i32 %86, 1
  store i32 %87, i32* @i, align 4
  br label %88

88:                                               ; preds = %78
  %89 = load i32, i32* @m, align 4
  %90 = add nsw i32 %89, 1
  store i32 %90, i32* @m, align 4
  br label %63

91:                                               ; preds = %77, %63
  %92 = call i32 (i8*, ...) @printf(i8* getelementptr inbounds ([4 x i8], [4 x i8]* @.str.1, i64 0, i64 0), i8* getelementptr inbounds ([256 x i8], [256 x i8]* @str, i64 0, i64 0))
  %93 = call i32 @getchar()
  %94 = call i32 @getchar()
  %95 = call i32 @getchar()
  %96 = call i32 @getchar()
  %97 = call i32 @getchar()
  %98 = call i32 @getchar()
  %99 = call i32 @getchar()
  %100 = call i32 @getchar()
  %101 = call i32 @getchar()
  %102 = call i32 @getchar()
  %103 = call i32 @getchar()
  %104 = call i32 @getchar()
  %105 = call i32 @getchar()
  %106 = call i32 @getchar()
  %107 = call i32 @getchar()
  %108 = call i32 @getchar()
  %109 = call i32 @getchar()
  %110 = call i32 @getchar()
  %111 = call i32 @getchar()
  %112 = call i32 @getchar()
  %113 = call i32 @getchar()
  %114 = call i32 @getchar()
  %115 = call i32 @getchar()
  %116 = call i32 @getchar()
  %117 = call i32 @getchar()
  %118 = call i32 @getchar()
  %119 = call i32 @getchar()
  %120 = call i32 @getchar()
  %121 = call i32 @getchar()
  %122 = call i32 @getchar()
  %123 = call i32 @getchar()
  %124 = call i32 @getchar()
  %125 = call i32 @getchar()
  %126 = call i32 @getchar()
  %127 = call i32 @getchar()
  %128 = call i32 @getchar()
  %129 = call i32 @getchar()
  %130 = call i32 @getchar()
  %131 = load i32, i32* %1, align 4
  ret i32 %131
}

declare dso_local i32 @__isoc99_scanf(i8*, ...) #1

declare dso_local i32 @printf(i8*, ...) #1

declare dso_local i32 @getchar() #1


!llvm.module.flags = !{!0}
!llvm.ident = !{!1}

!0 = !{i32 1, !"wchar_size", i32 4}
!1 = !{!"clang version 10.0.0-4ubuntu1 "}
